
Allocating common symbols
Common symbol       size              file

arr2                0x32              main.o

Memory Configuration

Name             Origin             Length             Attributes
flash            0x08000000         0x00020000         xr
ram              0x20000000         0x00005000         xrw
*default*        0x00000000         0xffffffff

Linker script and memory map

                0x08000000                . = 0x8000000

.text           0x08000000      0x1c4
                0x08000000                _S_TEXT = .
 *(.vectors*)
 .vectors       0x08000000       0x1c startup.o
                0x08000000                _vectors
 *(.text*)
 .text          0x0800001c       0xf8 main.o
                0x0800001c                main
 .text          0x08000114       0xb0 startup.o
                0x08000114                _reset
                0x080001b8                _default_handler
                0x080001b8                BUS_Handler
                0x080001b8                USAGE_FAULT_Handler
                0x080001b8                HARD_FAULT_Handler
                0x080001b8                NMI_Handler
                0x080001b8                MM_FAULT_Handler
                0x080001c4                . = ALIGN (0x4)
                0x080001c4                _E_TEXT = .

.rodata         0x080001c4       0x1c
 .rodata        0x080001c4       0x1c main.o
                0x080001c4                arr3

.glue_7         0x080001e0        0x0
 .glue_7        0x00000000        0x0 linker stubs

.glue_7t        0x080001e0        0x0
 .glue_7t       0x00000000        0x0 linker stubs

.vfp11_veneer   0x080001e0        0x0
 .vfp11_veneer  0x00000000        0x0 linker stubs

.v4_bx          0x080001e0        0x0
 .v4_bx         0x00000000        0x0 linker stubs

.iplt           0x080001e0        0x0
 .iplt          0x00000000        0x0 main.o

.rel.dyn        0x080001e0        0x0
 .rel.iplt      0x00000000        0x0 main.o

.data           0x20000000       0x64 load address 0x080001e0
                0x20000000                _S_DATA = .
 *(.data)
 .data          0x20000000       0x64 main.o
                0x20000000                arr1
 .data          0x20000064        0x0 startup.o
                0x20000064                . = ALIGN (0x4)
                0x20000064                _E_DATA = .

.igot.plt       0x20000064        0x0 load address 0x08000244
 .igot.plt      0x00000000        0x0 main.o

.bss            0x20000064       0x32 load address 0x08000244
                0x20000064                _S_BSS = .
 *(.bss*)
 .bss           0x20000064        0x0 main.o
 .bss           0x20000064        0x0 startup.o
                0x20000064                . = ALIGN (0x4)
                0x20000064                _E_BSS = .
 COMMON         0x20000064       0x32 main.o
                0x20000064                arr2
                0x20001096                . = (. + 0x1000)
                0x20001096                stack_top = .
LOAD main.o
LOAD startup.o
OUTPUT(toggle-led-stm32.elf elf32-littlearm)

.debug_info     0x00000000      0x2b8
 .debug_info    0x00000000      0x13f main.o
 .debug_info    0x0000013f      0x179 startup.o

.debug_abbrev   0x00000000      0x16e
 .debug_abbrev  0x00000000       0xa3 main.o
 .debug_abbrev  0x000000a3       0xcb startup.o

.debug_loc      0x00000000       0x9c
 .debug_loc     0x00000000       0x38 main.o
 .debug_loc     0x00000038       0x64 startup.o

.debug_aranges  0x00000000       0x40
 .debug_aranges
                0x00000000       0x20 main.o
 .debug_aranges
                0x00000020       0x20 startup.o

.debug_line     0x00000000      0x154
 .debug_line    0x00000000       0x94 main.o
 .debug_line    0x00000094       0xc0 startup.o

.debug_str      0x00000000      0x15b
 .debug_str     0x00000000       0xd9 main.o
                                0x112 (size before relaxing)
 .debug_str     0x000000d9       0x82 startup.o
                                0x174 (size before relaxing)

.comment        0x00000000       0x11
 .comment       0x00000000       0x11 main.o
                                 0x12 (size before relaxing)
 .comment       0x00000000       0x12 startup.o

.ARM.attributes
                0x00000000       0x33
 .ARM.attributes
                0x00000000       0x33 main.o
 .ARM.attributes
                0x00000033       0x33 startup.o

.debug_frame    0x00000000       0x78
 .debug_frame   0x00000000       0x2c main.o
 .debug_frame   0x0000002c       0x4c startup.o
